; Function Attrs: nounwind uwtable
define nonnull ptr @lv_image_decoder_create() local_unnamed_addr #0 {
  %1 = tail call ptr @lv_ll_ins_head(ptr noundef nonnull getelementptr inbounds nuw (i8, ptr @lv_global, i64 496)) #6
  %.not = icmp eq ptr %1, null
  br i1 %.not, label %.preheader, label %2

.preheader:                                       ; preds = %0, %.preheader
  br label %.preheader

2:                                                ; preds = %0
  tail call void @lv_memset(ptr noundef nonnull %1, i8 noundef zeroext 0, i64 noundef 56) #6
  ret ptr %1
}